target datalayout = "e-m:e-p270:32:32-p271:32:32-p272:64:64-i64:64-i128:128-f80:128-n8:16:32:64-S128"
target triple = "x86_64-pc-linux-gnu"

%"class.llvm::RegPressureTracker" = type { ptr, ptr, ptr, ptr, ptr, ptr, ptr, i8, i8, i8, %"class.llvm::MachineInstrBundleIterator", %"class.std::vector", %"class.llvm::LiveRegSet", %"class.llvm::SparseSet.0", %"class.std::vector" }
%"class.llvm::MachineInstrBundleIterator" = type { %"class.llvm::ilist_iterator" }
%"class.llvm::ilist_iterator" = type { ptr }
%"class.llvm::LiveRegSet" = type { %"class.llvm::SparseSet", i32, [4 x i8] }
%"class.llvm::SparseSet" = type <{ %"class.llvm::SmallVector", ptr, i32, [4 x i8] }>
%"class.llvm::SmallVector" = type { %"class.llvm::SmallVectorImpl", %"struct.llvm::SmallVectorStorage" }
%"class.llvm::SmallVectorImpl" = type { %"class.llvm::SmallVectorTemplateBase" }
%"class.llvm::SmallVectorTemplateBase" = type { %"class.llvm::SmallVectorTemplateCommon" }
%"class.llvm::SmallVectorTemplateCommon" = type { %"class.llvm::SmallVectorBase" }
%"class.llvm::SmallVectorBase" = type { ptr, i32, i32 }
%"struct.llvm::SmallVectorStorage" = type { [128 x i8] }
%"class.llvm::SparseSet.0" = type <{ %"class.llvm::SmallVector.1", ptr, i32, [4 x i8] }>
%"class.llvm::SmallVector.1" = type { %"class.llvm::SmallVectorImpl.2", %"struct.llvm::SmallVectorStorage.5" }
%"class.llvm::SmallVectorImpl.2" = type { %"class.llvm::SmallVectorTemplateBase.3" }
%"class.llvm::SmallVectorTemplateBase.3" = type { %"class.llvm::SmallVectorTemplateCommon.4" }
%"class.llvm::SmallVectorTemplateCommon.4" = type { %"class.llvm::SmallVectorBase" }
%"struct.llvm::SmallVectorStorage.5" = type { [32 x i8] }
%"class.std::vector" = type { %"struct.std::_Vector_base" }
%"struct.std::_Vector_base" = type { %"struct.std::_Vector_base<unsigned int, std::allocator<unsigned int>>::_Vector_impl" }
%"struct.std::_Vector_base<unsigned int, std::allocator<unsigned int>>::_Vector_impl" = type { %"struct.std::_Vector_base<unsigned int, std::allocator<unsigned int>>::_Vector_impl_data" }
%"struct.std::_Vector_base<unsigned int, std::allocator<unsigned int>>::_Vector_impl_data" = type { ptr, ptr, ptr }
%"struct.llvm::RegisterPressure" = type { %"class.std::vector", %"class.llvm::SmallVector.60", %"class.llvm::SmallVector.60" }
%"class.llvm::SmallVector.60" = type { %"class.llvm::SmallVectorImpl.61", %"struct.llvm::SmallVectorStorage.64" }
%"class.llvm::SmallVectorImpl.61" = type { %"class.llvm::SmallVectorTemplateBase.62" }
%"class.llvm::SmallVectorTemplateBase.62" = type { %"class.llvm::SmallVectorTemplateCommon.63" }
%"class.llvm::SmallVectorTemplateCommon.63" = type { %"class.llvm::SmallVectorBase" }
%"struct.llvm::SmallVectorStorage.64" = type { [128 x i8] }
%"class.llvm::SlotIndex" = type { %"class.llvm::PointerIntPair.65" }
%"class.llvm::PointerIntPair.65" = type { %"struct.llvm::detail::PunnedPointer.66" }
%"struct.llvm::detail::PunnedPointer.66" = type { [8 x i8] }
%"struct.llvm::IntervalPressure" = type { %"struct.llvm::RegisterPressure", %"class.llvm::SlotIndex", %"class.llvm::SlotIndex" }
%"struct.llvm::RegionPressure" = type { %"struct.llvm::RegisterPressure", %"class.llvm::MachineInstrBundleIterator", %"class.llvm::MachineInstrBundleIterator" }

; Function Attrs: mustprogress nounwind uwtable
define linkonce_odr hidden noundef ptr @_ZNK4llvm25SmallVectorTemplateCommonINS_16RegisterMaskPairEvE10getFirstElEv(ptr noundef nonnull align 8 dereferenceable(16) %0) #0 comdat align 2 {
  %2 = alloca ptr, align 8
  store ptr %0, ptr %2, align 8
  %3 = load ptr, ptr %2, align 8
  %4 = getelementptr inbounds i8, ptr %3, i64 16
  ret ptr %4
}

; Function Attrs: mustprogress nounwind uwtable
define linkonce_odr hidden void @_ZN4llvm25SmallVectorTemplateCommonINS_16RegisterMaskPairEvE8grow_podEmm(ptr noundef nonnull align 8 dereferenceable(16) %0, i64 noundef %1, i64 noundef %2) #0 comdat align 2 {
  %4 = alloca ptr, align 8
  %5 = alloca i64, align 8
  %6 = alloca i64, align 8
  store ptr %0, ptr %4, align 8
  store i64 %1, ptr %5, align 8
  store i64 %2, ptr %6, align 8
  %7 = load ptr, ptr %4, align 8
  %8 = call noundef ptr @_ZNK4llvm25SmallVectorTemplateCommonINS_16RegisterMaskPairEvE10getFirstElEv(ptr noundef nonnull align 8 dereferenceable(16) %7)
  %9 = load i64, ptr %5, align 8
  %10 = load i64, ptr %6, align 8
  call void @_ZN4llvm15SmallVectorBaseIjE8grow_podEPvmm(ptr noundef nonnull align 8 dereferenceable(16) %7, ptr noundef %8, i64 noundef %9, i64 noundef %10)
  ret void
}

; Function Attrs: mustprogress nounwind uwtable
define linkonce_odr hidden void @_ZN4llvm23SmallVectorTemplateBaseINS_16RegisterMaskPairELb1EE4growEm(ptr noundef nonnull align 8 dereferenceable(16) %0, i64 noundef %1) #0 comdat align 2 {
  %3 = alloca ptr, align 8
  %4 = alloca i64, align 8
  store ptr %0, ptr %3, align 8
  store i64 %1, ptr %4, align 8
  %5 = load ptr, ptr %3, align 8
  %6 = load i64, ptr %4, align 8
  call void @_ZN4llvm25SmallVectorTemplateCommonINS_16RegisterMaskPairEvE8grow_podEmm(ptr noundef nonnull align 8 dereferenceable(16) %5, i64 noundef %6, i64 noundef 16)
  ret void
}

; Function Attrs: mustprogress nounwind uwtable
define linkonce_odr hidden noundef i32 @_ZNK4llvm9SparseSetINS_10LiveRegSet13IndexMaskPairENS_8identityIjEEhE4sizeEv(ptr noundef nonnull align 8 dereferenceable(158) %0) #0 comdat align 2 {
  %2 = alloca ptr, align 8
  store ptr %0, ptr %2, align 8
  %3 = load ptr, ptr %2, align 8
  %4 = getelementptr inbounds nuw %"class.llvm::SparseSet", ptr %3, i32 0, i32 0
  %5 = call noundef i64 @_ZNK4llvm15SmallVectorBaseIjE4sizeEv(ptr noundef nonnull align 8 dereferenceable(16) %4)
  %6 = trunc i64 %5 to i32
  ret i32 %6
}

; Function Attrs: mustprogress nounwind uwtable
define linkonce_odr hidden void @_ZN4llvm15SmallVectorImplINS_16RegisterMaskPairEE7reserveEm(ptr noundef nonnull align 8 dereferenceable(16) %0, i64 noundef %1) #0 comdat align 2 {
  %3 = alloca ptr, align 8
  %4 = alloca i64, align 8
  store ptr %0, ptr %3, align 8
  store i64 %1, ptr %4, align 8
  %5 = load ptr, ptr %3, align 8
  %6 = call noundef i64 @_ZNK4llvm15SmallVectorBaseIjE8capacityEv(ptr noundef nonnull align 8 dereferenceable(16) %5)
  %7 = load i64, ptr %4, align 8
  %8 = icmp ult i64 %6, %7
  br i1 %8, label %9, label %11

9:                                                ; preds = %2
  %10 = load i64, ptr %4, align 8
  call void @_ZN4llvm23SmallVectorTemplateBaseINS_16RegisterMaskPairELb1EE4growEm(ptr noundef nonnull align 8 dereferenceable(16) %5, i64 noundef %10)
  br label %11

11:                                               ; preds = %9, %2
  ret void
}

; Function Attrs: mustprogress nounwind uwtable
define linkonce_odr hidden noundef i64 @_ZNK4llvm10LiveRegSet4sizeEv(ptr noundef nonnull align 8 dereferenceable(164) %0) #0 comdat align 2 {
  %2 = alloca ptr, align 8
  store ptr %0, ptr %2, align 8
  %3 = load ptr, ptr %2, align 8
  %4 = getelementptr inbounds nuw %"class.llvm::LiveRegSet", ptr %3, i32 0, i32 0
  %5 = call noundef i32 @_ZNK4llvm9SparseSetINS_10LiveRegSet13IndexMaskPairENS_8identityIjEEhE4sizeEv(ptr noundef nonnull align 8 dereferenceable(158) %4)
  %6 = zext i32 %5 to i64
  ret i64 %6
}

; Function Attrs: mustprogress nounwind uwtable
define dso_local void @_ZN4llvm18RegPressureTracker8closeTopEv(ptr noundef nonnull align 8 dereferenceable(352) %0) #0 align 2 {
  %2 = alloca ptr, align 8
  %3 = alloca %"class.llvm::SlotIndex", align 8
  store ptr %0, ptr %2, align 8
  %4 = load ptr, ptr %2, align 8
  %5 = getelementptr inbounds nuw %"class.llvm::RegPressureTracker", ptr %4, i32 0, i32 7
  %6 = load i8, ptr %5, align 8
  %7 = trunc i8 %6 to i1
  br i1 %7, label %8, label %16

8:                                                ; preds = %1
  %9 = call i64 @_ZNK4llvm18RegPressureTracker11getCurrSlotEv(ptr noundef nonnull align 8 dereferenceable(352) %4)
  %10 = getelementptr inbounds nuw %"class.llvm::SlotIndex", ptr %3, i32 0, i32 0
  %11 = getelementptr inbounds nuw %"class.llvm::PointerIntPair.65", ptr %10, i32 0, i32 0
  %12 = getelementptr inbounds nuw %"struct.llvm::detail::PunnedPointer.66", ptr %11, i32 0, i32 0
  store i64 %9, ptr %12, align 8
  %13 = getelementptr inbounds nuw %"class.llvm::RegPressureTracker", ptr %4, i32 0, i32 6
  %14 = load ptr, ptr %13, align 8
  %15 = getelementptr inbounds nuw %"struct.llvm::IntervalPressure", ptr %14, i32 0, i32 1
  call void @llvm.memcpy.p0.p0.i64(ptr align 8 %15, ptr align 8 %3, i64 8, i1 false)
  br label %21

16:                                               ; preds = %1
  %17 = getelementptr inbounds nuw %"class.llvm::RegPressureTracker", ptr %4, i32 0, i32 10
  %18 = getelementptr inbounds nuw %"class.llvm::RegPressureTracker", ptr %4, i32 0, i32 6
  %19 = load ptr, ptr %18, align 8
  %20 = getelementptr inbounds nuw %"struct.llvm::RegionPressure", ptr %19, i32 0, i32 1
  call void @llvm.memcpy.p0.p0.i64(ptr align 8 %20, ptr align 8 %17, i64 8, i1 false)
  br label %21

21:                                               ; preds = %16, %8
  %22 = getelementptr inbounds nuw %"class.llvm::RegPressureTracker", ptr %4, i32 0, i32 6
  %23 = load ptr, ptr %22, align 8
  %24 = getelementptr inbounds nuw %"struct.llvm::RegisterPressure", ptr %23, i32 0, i32 1
  %25 = getelementptr inbounds nuw %"class.llvm::RegPressureTracker", ptr %4, i32 0, i32 12
  %26 = call noundef i64 @_ZNK4llvm10LiveRegSet4sizeEv(ptr noundef nonnull align 8 dereferenceable(164) %25)
  call void @_ZN4llvm15SmallVectorImplINS_16RegisterMaskPairEE7reserveEm(ptr noundef nonnull align 8 dereferenceable(16) %24, i64 noundef %26)
  %27 = getelementptr inbounds nuw %"class.llvm::RegPressureTracker", ptr %4, i32 0, i32 12
  %28 = getelementptr inbounds nuw %"class.llvm::RegPressureTracker", ptr %4, i32 0, i32 6
  %29 = load ptr, ptr %28, align 8
  %30 = getelementptr inbounds nuw %"struct.llvm::RegisterPressure", ptr %29, i32 0, i32 1
  call void @_ZNK4llvm10LiveRegSet8appendToINS_11SmallVectorINS_16RegisterMaskPairELj8EEEEEvRT_(ptr noundef nonnull align 8 dereferenceable(164) %27, ptr noundef nonnull align 8 dereferenceable(144) %30)
  ret void
}