; Function Attrs: mustprogress nounwind uwtable
define dso_local void @_ZN4llvm18RegPressureTracker8closeTopEv(ptr noundef nonnull align 8 dereferenceable(352) %0) local_unnamed_addr #0 align 2 {
  %2 = getelementptr inbounds nuw i8, ptr %0, i64 56
  %3 = load i8, ptr %2, align 8
  %4 = trunc i8 %3 to i1
  %5 = getelementptr inbounds nuw i8, ptr %0, i64 48
  %6 = load ptr, ptr %5, align 8
  %7 = getelementptr inbounds nuw i8, ptr %6, i64 312
  br i1 %4, label %8, label %10

8:                                                ; preds = %1
  %9 = tail call i64 @_ZNK4llvm18RegPressureTracker11getCurrSlotEv(ptr noundef nonnull align 8 dereferenceable(352) %0)
  br label %13

10:                                               ; preds = %1
  %11 = getelementptr inbounds nuw i8, ptr %0, i64 64
  %12 = load i64, ptr %11, align 8
  br label %13

13:                                               ; preds = %10, %8
  %.sink = phi i64 [ %12, %10 ], [ %9, %8 ]
  store i64 %.sink, ptr %7, align 8
  %14 = getelementptr inbounds nuw i8, ptr %0, i64 48
  %15 = load ptr, ptr %14, align 8
  %16 = getelementptr inbounds nuw i8, ptr %15, i64 24
  %17 = getelementptr inbounds nuw i8, ptr %0, i64 96
  %18 = tail call noundef i64 @_ZNK4llvm15SmallVectorBaseIjE4sizeEv(ptr noundef nonnull align 8 dereferenceable(16) %17) #14
  %19 = and i64 %18, 4294967295
  %20 = tail call noundef i64 @_ZNK4llvm15SmallVectorBaseIjE8capacityEv(ptr noundef nonnull align 8 dereferenceable(16) %16) #14
  %21 = icmp ult i64 %20, %19
  br i1 %21, label %22, label %_ZN4llvm15SmallVectorImplINS_16RegisterMaskPairEE7reserveEm.exit

22:                                               ; preds = %13
  %23 = getelementptr inbounds i8, ptr %15, i64 40
  tail call void @_ZN4llvm15SmallVectorBaseIjE8grow_podEPvmm(ptr noundef nonnull align 8 dereferenceable(16) %16, ptr noundef nonnull %23, i64 noundef %19, i64 noundef 16) #14
  br label %_ZN4llvm15SmallVectorImplINS_16RegisterMaskPairEE7reserveEm.exit

_ZN4llvm15SmallVectorImplINS_16RegisterMaskPairEE7reserveEm.exit: ; preds = %13, %22
  %24 = load ptr, ptr %14, align 8
  %25 = getelementptr inbounds nuw i8, ptr %24, i64 24
  tail call void @_ZNK4llvm10LiveRegSet8appendToINS_11SmallVectorINS_16RegisterMaskPairELj8EEEEEvRT_(ptr noundef nonnull align 8 dereferenceable(164) %17, ptr noundef nonnull align 8 dereferenceable(144) %25)
  ret void
}